; Function Attrs: mustprogress uwtable
define noundef range(i64 -288230376151711744, 288230376151711744) i64 @_ZNK32pxrInternal_v0_24__pxrReserved__8SdfLayer19GetNumSubLayerPathsEv(ptr noundef nonnull align 8 dereferenceable(557) %0) local_unnamed_addr #3 align 2 personality ptr @__gxx_personality_v0 {
  %2 = alloca %"class.pxrInternal_v0_24__pxrReserved__::TfCallContext", align 8
  %3 = alloca %"class.pxrInternal_v0_24__pxrReserved__::SdfListProxy.193", align 8
  call void @_ZNK32pxrInternal_v0_24__pxrReserved__8SdfLayer16GetSubLayerPathsEv(ptr dead_on_unwind nonnull writable sret(%"class.pxrInternal_v0_24__pxrReserved__::SdfListProxy.193") align 8 %3, ptr noundef nonnull align 8 dereferenceable(557) %0)
  call void @llvm.lifetime.start.p0(i64 40, ptr nonnull %2)
  %4 = load ptr, ptr %3, align 8
  %.not.i.i = icmp eq ptr %4, null
  br i1 %.not.i.i, label %_ZNK32pxrInternal_v0_24__pxrReserved__12SdfListProxyINS_21SdfSubLayerTypePolicyEE9_ValidateEv.exit.thread.i, label %_ZNK32pxrInternal_v0_24__pxrReserved__12SdfListProxyINS_21SdfSubLayerTypePolicyEE9IsExpiredEv.exit.i.i

_ZNK32pxrInternal_v0_24__pxrReserved__12SdfListProxyINS_21SdfSubLayerTypePolicyEE9IsExpiredEv.exit.i.i: ; preds = %1
  %5 = getelementptr inbounds nuw i8, ptr %4, i64 8
  %6 = invoke noundef zeroext i1 @_ZNK32pxrInternal_v0_24__pxrReserved__7SdfSpec9IsDormantEv(ptr noundef nonnull align 8 dereferenceable(8) %5)
          to label %.noexc unwind label %63

.noexc:                                           ; preds = %_ZNK32pxrInternal_v0_24__pxrReserved__12SdfListProxyINS_21SdfSubLayerTypePolicyEE9IsExpiredEv.exit.i.i
  br i1 %6, label %7, label %12

7:                                                ; preds = %.noexc
  store ptr @.str.177, ptr %2, align 8
  %8 = getelementptr inbounds nuw i8, ptr %2, i64 8
  store ptr @__func__._ZNK32pxrInternal_v0_24__pxrReserved__18SdfListEditorProxyINS_22SdfReferenceTypePolicyEE9_ValidateEv, ptr %8, align 8
  %9 = getelementptr inbounds nuw i8, ptr %2, i64 16
  store i64 691, ptr %9, align 8
  %10 = getelementptr inbounds nuw i8, ptr %2, i64 24
  store ptr @__PRETTY_FUNCTION__._ZNK32pxrInternal_v0_24__pxrReserved__12SdfListProxyINS_21SdfSubLayerTypePolicyEE9_ValidateEv, ptr %10, align 8
  %11 = getelementptr inbounds nuw i8, ptr %2, i64 32
  store i8 0, ptr %11, align 8
  invoke void (ptr, i32, ptr, ...) @_ZN32pxrInternal_v0_24__pxrReserved__18Tf_PostErrorHelperERKNS_13TfCallContextENS_16TfDiagnosticTypeEPKcz(ptr noundef nonnull align 8 dereferenceable(33) %2, i32 noundef 1, ptr noundef nonnull @.str.156)
          to label %_ZNK32pxrInternal_v0_24__pxrReserved__12SdfListProxyINS_21SdfSubLayerTypePolicyEE9_ValidateEv.exit.thread.i unwind label %63

_ZNK32pxrInternal_v0_24__pxrReserved__12SdfListProxyINS_21SdfSubLayerTypePolicyEE9_ValidateEv.exit.thread.i: ; preds = %7, %1
  call void @llvm.lifetime.end.p0(i64 40, ptr nonnull %2)
  br label %_ZNK32pxrInternal_v0_24__pxrReserved__12SdfListProxyINS_21SdfSubLayerTypePolicyEE4sizeEv.exit

12:                                               ; preds = %.noexc
  call void @llvm.lifetime.end.p0(i64 40, ptr nonnull %2)
  %13 = getelementptr inbounds nuw i8, ptr %3, i64 16
  %14 = load i32, ptr %13, align 8
  %15 = load ptr, ptr %4, align 8
  %16 = getelementptr inbounds nuw i8, ptr %15, i64 112
  %17 = load ptr, ptr %16, align 8
  %18 = invoke noundef nonnull align 8 dereferenceable(24) ptr %17(ptr noundef nonnull align 8 dereferenceable(25) %4, i32 noundef %14)
          to label %.noexc3 unwind label %63

.noexc3:                                          ; preds = %12
  %19 = getelementptr inbounds nuw i8, ptr %18, i64 8
  %20 = load ptr, ptr %19, align 8
  %21 = load ptr, ptr %18, align 8
  %22 = ptrtoint ptr %20 to i64
  %23 = ptrtoint ptr %21 to i64
  %24 = sub i64 %22, %23
  %25 = ashr exact i64 %24, 5
  br label %_ZNK32pxrInternal_v0_24__pxrReserved__12SdfListProxyINS_21SdfSubLayerTypePolicyEE4sizeEv.exit

_ZNK32pxrInternal_v0_24__pxrReserved__12SdfListProxyINS_21SdfSubLayerTypePolicyEE4sizeEv.exit: ; preds = %.noexc3, %_ZNK32pxrInternal_v0_24__pxrReserved__12SdfListProxyINS_21SdfSubLayerTypePolicyEE9_ValidateEv.exit.thread.i
  %26 = phi i64 [ 0, %_ZNK32pxrInternal_v0_24__pxrReserved__12SdfListProxyINS_21SdfSubLayerTypePolicyEE9_ValidateEv.exit.thread.i ], [ %25, %.noexc3 ]
  %27 = getelementptr inbounds nuw i8, ptr %3, i64 8
  %28 = load ptr, ptr %27, align 8
  %.not.i.i.i.i = icmp eq ptr %28, null
  br i1 %.not.i.i.i.i, label %_ZN32pxrInternal_v0_24__pxrReserved__12SdfListProxyINS_21SdfSubLayerTypePolicyEED2Ev.exit, label %29

29:                                               ; preds = %_ZNK32pxrInternal_v0_24__pxrReserved__12SdfListProxyINS_21SdfSubLayerTypePolicyEE4sizeEv.exit
  %30 = getelementptr inbounds nuw i8, ptr %28, i64 8
  %31 = load atomic i64, ptr %30 acquire, align 8
  %32 = icmp eq i64 %31, 4294967297
  %33 = trunc i64 %31 to i32
  br i1 %32, label %34, label %39

34:                                               ; preds = %29
  store i32 0, ptr %30, align 8
  %35 = getelementptr inbounds nuw i8, ptr %28, i64 12
  store i32 0, ptr %35, align 4
  %36 = load ptr, ptr %28, align 8
  %37 = getelementptr inbounds nuw i8, ptr %36, i64 16
  %38 = load ptr, ptr %37, align 8
  call void %38(ptr noundef nonnull align 8 dereferenceable(16) %28) #33
  br label %_ZNSt16_Sp_counted_baseILN9__gnu_cxx12_Lock_policyE2EE24_M_release_last_use_coldEv.exit.sink.split.i.i.i.i.i

39:                                               ; preds = %29
  %40 = load i8, ptr @__libc_single_threaded, align 1
  %.not.i.i.i.i.i = icmp eq i8 %40, 0
  br i1 %.not.i.i.i.i.i, label %43, label %41

41:                                               ; preds = %39
  %42 = add nsw i32 %33, -1
  store i32 %42, ptr %30, align 4
  br label %45

43:                                               ; preds = %39
  %44 = atomicrmw volatile add ptr %30, i32 -1 acq_rel, align 4
  br label %45

45:                                               ; preds = %43, %41
  %.0.i.i.i.i.i = phi i32 [ %33, %41 ], [ %44, %43 ]
  %46 = icmp eq i32 %.0.i.i.i.i.i, 1
  br i1 %46, label %47, label %_ZN32pxrInternal_v0_24__pxrReserved__12SdfListProxyINS_21SdfSubLayerTypePolicyEED2Ev.exit

47:                                               ; preds = %45
  %48 = load ptr, ptr %28, align 8
  %49 = getelementptr inbounds nuw i8, ptr %48, i64 16
  %50 = load ptr, ptr %49, align 8
  call void %50(ptr noundef nonnull align 8 dereferenceable(16) %28) #33
  %51 = getelementptr inbounds nuw i8, ptr %28, i64 12
  %52 = load i8, ptr @__libc_single_threaded, align 1
  %.not.i.i.i.i.i.i.i = icmp eq i8 %52, 0
  br i1 %.not.i.i.i.i.i.i.i, label %56, label %53

53:                                               ; preds = %47
  %54 = load i32, ptr %51, align 4
  %55 = add nsw i32 %54, -1
  store i32 %55, ptr %51, align 4
  br label %58

56:                                               ; preds = %47
  %57 = atomicrmw volatile add ptr %51, i32 -1 acq_rel, align 4
  br label %58

58:                                               ; preds = %56, %53
  %.0.i.i.i.i.i.i.i = phi i32 [ %54, %53 ], [ %57, %56 ]
  %59 = icmp eq i32 %.0.i.i.i.i.i.i.i, 1
  br i1 %59, label %_ZNSt16_Sp_counted_baseILN9__gnu_cxx12_Lock_policyE2EE24_M_release_last_use_coldEv.exit.sink.split.i.i.i.i.i, label %_ZN32pxrInternal_v0_24__pxrReserved__12SdfListProxyINS_21SdfSubLayerTypePolicyEED2Ev.exit

_ZNSt16_Sp_counted_baseILN9__gnu_cxx12_Lock_policyE2EE24_M_release_last_use_coldEv.exit.sink.split.i.i.i.i.i: ; preds = %58, %34
  %60 = load ptr, ptr %28, align 8
  %61 = getelementptr inbounds nuw i8, ptr %60, i64 24
  %62 = load ptr, ptr %61, align 8
  call void %62(ptr noundef nonnull align 8 dereferenceable(16) %28) #33
  br label %_ZN32pxrInternal_v0_24__pxrReserved__12SdfListProxyINS_21SdfSubLayerTypePolicyEED2Ev.exit

_ZN32pxrInternal_v0_24__pxrReserved__12SdfListProxyINS_21SdfSubLayerTypePolicyEED2Ev.exit: ; preds = %_ZNK32pxrInternal_v0_24__pxrReserved__12SdfListProxyINS_21SdfSubLayerTypePolicyEE4sizeEv.exit, %45, %58, %_ZNSt16_Sp_counted_baseILN9__gnu_cxx12_Lock_policyE2EE24_M_release_last_use_coldEv.exit.sink.split.i.i.i.i.i
  ret i64 %26

63:                                               ; preds = %12, %7, %_ZNK32pxrInternal_v0_24__pxrReserved__12SdfListProxyINS_21SdfSubLayerTypePolicyEE9IsExpiredEv.exit.i.i
  %64 = landingpad { ptr, i32 }
          cleanup
  call void @_ZN32pxrInternal_v0_24__pxrReserved__12SdfListProxyINS_21SdfSubLayerTypePolicyEED2Ev(ptr noundef nonnull align 8 dereferenceable(20) %3) #33
  resume { ptr, i32 } %64
}